(dp0
S'time_update_bases'
p1
(lp2
F1.3954639434814453
aF0.0696721076965332
aI2
asS'time_communication'
p3
(lp4
F1.9747953414916992
aF0.21827173233032227
aF2.86102294921875e-06
aF0.7059361934661865
asS'time_total'
p5
F41.77599096298218
sS'time_computation'
p6
(lp7
F9.512324333190918
aF24.331083059310913
aF9.38797402381897
aF4.876682996749878
as.