(dp0
S'time_update_bases'
p1
(lp2
F3.0669665336608887
aF0.09343481063842773
aI2
asS'time_communication'
p3
(lp4
F5.370479345321655
aF0.40439486503601074
aF7.867813110351562e-06
aF0.5256249904632568
asS'time_total'
p5
F77.0404760837555
sS'time_computation'
p6
(lp7
F17.54878306388855
aF46.01612186431885
aF23.843859672546387
aF3.134459972381592
as.