(dp0
S'time_update_bases'
p1
(lp2
F5.832549333572388
aF0.6950061321258545
aI2
asS'time_communication'
p3
(lp4
F8.78659987449646
aF0.19987177848815918
aF8.106231689453125e-06
aF0.722822904586792
asS'time_total'
p5
F407.2827830314636
sS'time_computation'
p6
(lp7
F115.5645158290863
aF237.61297392845154
aF154.36667394638062
aF5.974750757217407
as.