(dp0
S'time_update_bases'
p1
(lp2
F2.5279347896575928
aF0.5201737880706787
aI2
asS'time_communication'
p3
(lp4
F2.888105630874634
aF0.17995476722717285
aF3.814697265625e-06
aF0.3465240001678467
asS'time_total'
p5
F210.69468116760254
sS'time_computation'
p6
(lp7
F69.64641642570496
aF135.7622308731079
aF70.63576006889343
aF2.664652109146118
as.